; Function Attrs: null_pointer_is_valid sspstrong uwtable
define ptr @prefs_register_stat(ptr noundef %0, ptr noundef %1, ptr noundef %2, ptr noundef %3) local_unnamed_addr #1 {
  %5 = load ptr, ptr @stats_module, align 8
  %6 = icmp eq ptr %5, null
  br i1 %6, label %7, label %8

7:                                                ; preds = %4
  tail call fastcc void @pre_init_prefs()
  tail call fastcc void @prefs_register_modules()
  %.pre = load ptr, ptr @stats_module, align 8
  br label %8

8:                                                ; preds = %7, %4
  %9 = phi ptr [ %.pre, %7 ], [ %5, %4 ]
  %10 = tail call fastcc ptr @prefs_register_module_or_subtree(ptr noundef %9, ptr noundef %0, ptr noundef %1, ptr noundef %2, ptr noundef null, i1 noundef zeroext false, ptr noundef %3, i1 noundef zeroext true)
  ret ptr %10
}